target datalayout = "e-m:e-p270:32:32-p271:32:32-p272:64:64-i64:64-i128:128-f80:128-n8:16:32:64-S128"
target triple = "x86_64-pc-linux-gnu"

%struct._proto_node = type { ptr, ptr, ptr, ptr, ptr, ptr, ptr }

@hf_gbcs_message_element_length = internal global i32 0, align 4
@ett_gbcs_message_element = internal global i32 0, align 4
@.str.573 = private unnamed_addr constant [1 x i8] zeroinitializer, align 1
@.str.578 = private unnamed_addr constant [3 x i8] c"%s\00", align 1
@.str.579 = private unnamed_addr constant [11 x i8] c"%s: <none>\00", align 1

; Function Attrs: null_pointer_is_valid sspstrong uwtable
define internal void @dissect_gbcs_message_element(ptr noundef %0, i32 noundef %1, ptr noundef %2, ptr noundef %3) #0 {
  %5 = alloca ptr, align 8
  %6 = alloca i32, align 4
  %7 = alloca ptr, align 8
  %8 = alloca ptr, align 8
  %9 = alloca ptr, align 8
  %10 = alloca ptr, align 8
  %11 = alloca ptr, align 8
  %12 = alloca i32, align 4
  %13 = alloca ptr, align 8
  store ptr %0, ptr %5, align 8
  store i32 %1, ptr %6, align 4
  store ptr %2, ptr %7, align 8
  store ptr %3, ptr %8, align 8
  call void @llvm.lifetime.start.p0(i64 8, ptr %9) #5
  call void @llvm.lifetime.start.p0(i64 8, ptr %10) #5
  call void @llvm.lifetime.start.p0(i64 8, ptr %11) #5
  call void @llvm.lifetime.start.p0(i64 4, ptr %12) #5
  %14 = load ptr, ptr %5, align 8
  %15 = load ptr, ptr %7, align 8
  %16 = load ptr, ptr %8, align 8
  %17 = load i32, ptr %16, align 4
  %18 = load i32, ptr @ett_gbcs_message_element, align 4
  %19 = call ptr @proto_tree_add_subtree(ptr noundef %14, ptr noundef %15, i32 noundef %17, i32 noundef 1, i32 noundef %18, ptr noundef %10, ptr noundef @.str.573)
  store ptr %19, ptr %9, align 8
  %20 = load ptr, ptr %9, align 8
  %21 = load i32, ptr @hf_gbcs_message_element_length, align 4
  %22 = load ptr, ptr %7, align 8
  %23 = load ptr, ptr %8, align 8
  %24 = load i32, ptr %23, align 4
  %25 = call ptr @proto_tree_add_item_ret_uint(ptr noundef %20, i32 noundef %21, ptr noundef %22, i32 noundef %24, i32 noundef 1, i32 noundef 0, ptr noundef %12)
  %26 = load ptr, ptr %8, align 8
  %27 = load i32, ptr %26, align 4
  %28 = add i32 %27, 1
  store i32 %28, ptr %26, align 4
  %29 = load i32, ptr %12, align 4
  %30 = icmp ugt i32 %29, 0
  br i1 %30, label %31, label %59

31:                                               ; preds = %4
  %32 = load ptr, ptr %9, align 8
  %33 = load i32, ptr %6, align 4
  %34 = load ptr, ptr %7, align 8
  %35 = load ptr, ptr %8, align 8
  %36 = load i32, ptr %35, align 4
  %37 = load i32, ptr %12, align 4
  %38 = call ptr @proto_tree_add_item(ptr noundef %32, i32 noundef %33, ptr noundef %34, i32 noundef %36, i32 noundef %37, i32 noundef 0)
  store ptr %38, ptr %11, align 8
  %39 = load ptr, ptr %11, align 8
  %40 = icmp ne ptr %39, null
  br i1 %40, label %41, label %50

41:                                               ; preds = %31
  call void @llvm.lifetime.start.p0(i64 8, ptr %13) #5
  %42 = call ptr @wmem_packet_scope()
  %43 = call noalias ptr @wmem_alloc(ptr noundef %42, i64 noundef 241) #6
  store ptr %43, ptr %13, align 8
  %44 = load ptr, ptr %11, align 8
  %45 = getelementptr inbounds nuw %struct._proto_node, ptr %44, i32 0, i32 5
  %46 = load ptr, ptr %45, align 8
  %47 = load ptr, ptr %13, align 8
  call void @proto_item_fill_label(ptr noundef %46, ptr noundef %47, ptr noundef null)
  %48 = load ptr, ptr %10, align 8
  %49 = load ptr, ptr %13, align 8
  call void (ptr, ptr, ...) @proto_item_append_text(ptr noundef %48, ptr noundef @.str.578, ptr noundef %49)
  call void @llvm.lifetime.end.p0(i64 8, ptr %13) #5
  br label %50

50:                                               ; preds = %41, %31
  %51 = load i32, ptr %12, align 4
  %52 = load ptr, ptr %8, align 8
  %53 = load i32, ptr %52, align 4
  %54 = add i32 %53, %51
  store i32 %54, ptr %52, align 4
  %55 = load ptr, ptr %10, align 8
  %56 = load ptr, ptr %7, align 8
  %57 = load ptr, ptr %8, align 8
  %58 = load i32, ptr %57, align 4
  call void @proto_item_set_end(ptr noundef %55, ptr noundef %56, i32 noundef %58)
  br label %63

59:                                               ; preds = %4
  %60 = load ptr, ptr %10, align 8
  %61 = load i32, ptr %6, align 4
  %62 = call ptr @proto_registrar_get_name(i32 noundef %61)
  call void (ptr, ptr, ...) @proto_item_append_text(ptr noundef %60, ptr noundef @.str.579, ptr noundef %62)
  br label %63

63:                                               ; preds = %59, %50
  call void @llvm.lifetime.end.p0(i64 4, ptr %12) #5
  call void @llvm.lifetime.end.p0(i64 8, ptr %11) #5
  call void @llvm.lifetime.end.p0(i64 8, ptr %10) #5
  call void @llvm.lifetime.end.p0(i64 8, ptr %9) #5
  ret void
}