; Function Attrs: null_pointer_is_valid sspstrong uwtable
define internal fastcc void @dissect_gbcs_message_element(ptr noundef %0, i32 noundef %1, ptr noundef %2, ptr noundef captures(none) %3) unnamed_addr #0 {
  %5 = alloca ptr, align 8
  %6 = alloca i32, align 4
  call void @llvm.lifetime.start.p0(i64 8, ptr nonnull %5) #6
  call void @llvm.lifetime.start.p0(i64 4, ptr nonnull %6) #6
  %7 = load i32, ptr %3, align 4
  %8 = load i32, ptr @ett_gbcs_message_element, align 4
  %9 = call ptr @proto_tree_add_subtree(ptr noundef %0, ptr noundef %2, i32 noundef %7, i32 noundef 1, i32 noundef %8, ptr noundef nonnull %5, ptr noundef nonnull @.str.573)
  %10 = load i32, ptr @hf_gbcs_message_element_length, align 4
  %11 = load i32, ptr %3, align 4
  %12 = call ptr @proto_tree_add_item_ret_uint(ptr noundef %9, i32 noundef %10, ptr noundef %2, i32 noundef %11, i32 noundef 1, i32 noundef 0, ptr noundef nonnull %6)
  %13 = load i32, ptr %3, align 4
  %14 = add i32 %13, 1
  store i32 %14, ptr %3, align 4
  %15 = load i32, ptr %6, align 4
  %.not = icmp eq i32 %15, 0
  br i1 %.not, label %29, label %16

16:                                               ; preds = %4
  %17 = call ptr @proto_tree_add_item(ptr noundef %9, i32 noundef %1, ptr noundef %2, i32 noundef %14, i32 noundef %15, i32 noundef 0)
  %.not19 = icmp eq ptr %17, null
  br i1 %.not19, label %24, label %18

18:                                               ; preds = %16
  %19 = call ptr @wmem_packet_scope()
  %20 = call noalias dereferenceable_or_null(241) ptr @wmem_alloc(ptr noundef %19, i64 noundef 241) #7
  %21 = getelementptr inbounds nuw i8, ptr %17, i64 40
  %22 = load ptr, ptr %21, align 8
  call void @proto_item_fill_label(ptr noundef %22, ptr noundef %20, ptr noundef null)
  %23 = load ptr, ptr %5, align 8
  call void (ptr, ptr, ...) @proto_item_append_text(ptr noundef %23, ptr noundef nonnull @.str.578, ptr noundef %20)
  br label %24

24:                                               ; preds = %18, %16
  %25 = load i32, ptr %6, align 4
  %26 = load i32, ptr %3, align 4
  %27 = add i32 %26, %25
  store i32 %27, ptr %3, align 4
  %28 = load ptr, ptr %5, align 8
  call void @proto_item_set_end(ptr noundef %28, ptr noundef %2, i32 noundef %27)
  br label %32

29:                                               ; preds = %4
  %30 = load ptr, ptr %5, align 8
  %31 = call ptr @proto_registrar_get_name(i32 noundef %1)
  call void (ptr, ptr, ...) @proto_item_append_text(ptr noundef %30, ptr noundef nonnull @.str.579, ptr noundef %31)
  br label %32

32:                                               ; preds = %29, %24
  call void @llvm.lifetime.end.p0(i64 4, ptr nonnull %6) #6
  call void @llvm.lifetime.end.p0(i64 8, ptr nonnull %5) #6
  ret void
}